
sudoku.elf:     file format elf32-littleriscv


Disassembly of section .text.swinit1:

60000000 <_start>:
60000000:	00001317          	auipc	t1,0x1
60000004:	a4430313          	add	t1,t1,-1468 # 60000a44 <_bss_vma_end>
60000008:	00001397          	auipc	t2,0x1
6000000c:	a3c38393          	add	t2,t2,-1476 # 60000a44 <_bss_vma_end>
60000010:	00730863          	beq	t1,t2,60000020 <_setup>

60000014 <_initbss_loop>:
60000014:	00032023          	sw	zero,0(t1)
60000018:	00430313          	add	t1,t1,4
6000001c:	fe736ce3          	bltu	t1,t2,60000014 <_initbss_loop>

60000020 <_setup>:
60000020:	20000117          	auipc	sp,0x20000
60000024:	fe010113          	add	sp,sp,-32 # 80000000 <_stack_top>
60000028:	00010433          	add	s0,sp,zero
6000002c:	00001097          	auipc	ra,0x1
60000030:	858080e7          	jalr	-1960(ra) # 60000884 <main>
60000034:	f0002013          	slti	zero,zero,-256
60000038:	00000097          	auipc	ra,0x0
6000003c:	448080e7          	jalr	1096(ra) # 60000480 <_fini>

Disassembly of section .text:

60000040 <solve_sudoku>:
60000040:	fd010113          	add	sp,sp,-48
60000044:	01512a23          	sw	s5,20(sp)
60000048:	01712623          	sw	s7,12(sp)
6000004c:	02112623          	sw	ra,44(sp)
60000050:	01612823          	sw	s6,16(sp)
60000054:	00050b93          	mv	s7,a0
60000058:	00050793          	mv	a5,a0
6000005c:	00000a93          	li	s5,0
60000060:	00900693          	li	a3,9
60000064:	0007ab03          	lw	s6,0(a5)
60000068:	060b0663          	beqz	s6,600000d4 <solve_sudoku+0x94>
6000006c:	0047a703          	lw	a4,4(a5)
60000070:	2a070663          	beqz	a4,6000031c <solve_sudoku+0x2dc>
60000074:	0087a703          	lw	a4,8(a5)
60000078:	2c070663          	beqz	a4,60000344 <solve_sudoku+0x304>
6000007c:	00c7a703          	lw	a4,12(a5)
60000080:	2e070663          	beqz	a4,6000036c <solve_sudoku+0x32c>
60000084:	0107a703          	lw	a4,16(a5)
60000088:	30070663          	beqz	a4,60000394 <solve_sudoku+0x354>
6000008c:	0147a703          	lw	a4,20(a5)
60000090:	32070663          	beqz	a4,600003bc <solve_sudoku+0x37c>
60000094:	0187a703          	lw	a4,24(a5)
60000098:	34070663          	beqz	a4,600003e4 <solve_sudoku+0x3a4>
6000009c:	01c7a703          	lw	a4,28(a5)
600000a0:	36070663          	beqz	a4,6000040c <solve_sudoku+0x3cc>
600000a4:	0207a703          	lw	a4,32(a5)
600000a8:	02478793          	add	a5,a5,36
600000ac:	38070463          	beqz	a4,60000434 <solve_sudoku+0x3f4>
600000b0:	001a8a93          	add	s5,s5,1
600000b4:	fada98e3          	bne	s5,a3,60000064 <solve_sudoku+0x24>
600000b8:	02c12083          	lw	ra,44(sp)
600000bc:	01412a83          	lw	s5,20(sp)
600000c0:	01012b03          	lw	s6,16(sp)
600000c4:	00c12b83          	lw	s7,12(sp)
600000c8:	00100513          	li	a0,1
600000cc:	03010113          	add	sp,sp,48
600000d0:	00008067          	ret
600000d4:	02812423          	sw	s0,40(sp)
600000d8:	02912223          	sw	s1,36(sp)
600000dc:	03212023          	sw	s2,32(sp)
600000e0:	01312e23          	sw	s3,28(sp)
600000e4:	01412c23          	sw	s4,24(sp)
600000e8:	01812423          	sw	s8,8(sp)
600000ec:	01912223          	sw	s9,4(sp)
600000f0:	01a12023          	sw	s10,0(sp)
600000f4:	003a9493          	sll	s1,s5,0x3
600000f8:	015484b3          	add	s1,s1,s5
600000fc:	00249493          	sll	s1,s1,0x2
60000100:	002b1c93          	sll	s9,s6,0x2
60000104:	009b84b3          	add	s1,s7,s1
60000108:	019b8933          	add	s2,s7,s9
6000010c:	00100413          	li	s0,1
60000110:	00500c13          	li	s8,5
60000114:	00200d13          	li	s10,2
60000118:	06cb8a13          	add	s4,s7,108
6000011c:	0d8b8993          	add	s3,s7,216
60000120:	01948cb3          	add	s9,s1,s9
60000124:	0004a783          	lw	a5,0(s1)
60000128:	1cf40663          	beq	s0,a5,600002f4 <solve_sudoku+0x2b4>
6000012c:	0044a783          	lw	a5,4(s1)
60000130:	1cf40263          	beq	s0,a5,600002f4 <solve_sudoku+0x2b4>
60000134:	0084a783          	lw	a5,8(s1)
60000138:	1af40e63          	beq	s0,a5,600002f4 <solve_sudoku+0x2b4>
6000013c:	00c4a783          	lw	a5,12(s1)
60000140:	1af40a63          	beq	s0,a5,600002f4 <solve_sudoku+0x2b4>
60000144:	0104a783          	lw	a5,16(s1)
60000148:	1af40663          	beq	s0,a5,600002f4 <solve_sudoku+0x2b4>
6000014c:	0144a783          	lw	a5,20(s1)
60000150:	1af40263          	beq	s0,a5,600002f4 <solve_sudoku+0x2b4>
60000154:	0184a783          	lw	a5,24(s1)
60000158:	18f40e63          	beq	s0,a5,600002f4 <solve_sudoku+0x2b4>
6000015c:	01c4a783          	lw	a5,28(s1)
60000160:	18f40a63          	beq	s0,a5,600002f4 <solve_sudoku+0x2b4>
60000164:	0204a783          	lw	a5,32(s1)
60000168:	408787b3          	sub	a5,a5,s0
6000016c:	0017b513          	seqz	a0,a5
60000170:	00092783          	lw	a5,0(s2)
60000174:	14f40c63          	beq	s0,a5,600002cc <solve_sudoku+0x28c>
60000178:	02492783          	lw	a5,36(s2)
6000017c:	14f40863          	beq	s0,a5,600002cc <solve_sudoku+0x28c>
60000180:	04892783          	lw	a5,72(s2)
60000184:	14f40463          	beq	s0,a5,600002cc <solve_sudoku+0x28c>
60000188:	06c92783          	lw	a5,108(s2)
6000018c:	14f40063          	beq	s0,a5,600002cc <solve_sudoku+0x28c>
60000190:	09092783          	lw	a5,144(s2)
60000194:	12f40c63          	beq	s0,a5,600002cc <solve_sudoku+0x28c>
60000198:	0b492783          	lw	a5,180(s2)
6000019c:	12f40863          	beq	s0,a5,600002cc <solve_sudoku+0x28c>
600001a0:	0d892783          	lw	a5,216(s2)
600001a4:	12f40463          	beq	s0,a5,600002cc <solve_sudoku+0x28c>
600001a8:	0fc92783          	lw	a5,252(s2)
600001ac:	12f40063          	beq	s0,a5,600002cc <solve_sudoku+0x28c>
600001b0:	12092803          	lw	a6,288(s2)
600001b4:	40880833          	sub	a6,a6,s0
600001b8:	00183813          	seqz	a6,a6
600001bc:	115c4c63          	blt	s8,s5,600002d4 <solve_sudoku+0x294>
600001c0:	155d4663          	blt	s10,s5,6000030c <solve_sudoku+0x2cc>
600001c4:	000b8613          	mv	a2,s7
600001c8:	04800593          	li	a1,72
600001cc:	02400693          	li	a3,36
600001d0:	116c4a63          	blt	s8,s6,600002e4 <solve_sudoku+0x2a4>
600001d4:	136d4463          	blt	s10,s6,600002fc <solve_sudoku+0x2bc>
600001d8:	00200893          	li	a7,2
600001dc:	00100713          	li	a4,1
600001e0:	00000793          	li	a5,0
600001e4:	00279793          	sll	a5,a5,0x2
600001e8:	00f60333          	add	t1,a2,a5
600001ec:	00032303          	lw	t1,0(t1)
600001f0:	08640a63          	beq	s0,t1,60000284 <solve_sudoku+0x244>
600001f4:	00271713          	sll	a4,a4,0x2
600001f8:	00e60333          	add	t1,a2,a4
600001fc:	00032303          	lw	t1,0(t1)
60000200:	08640263          	beq	s0,t1,60000284 <solve_sudoku+0x244>
60000204:	00289893          	sll	a7,a7,0x2
60000208:	01160633          	add	a2,a2,a7
6000020c:	00062603          	lw	a2,0(a2)
60000210:	06c40a63          	beq	s0,a2,60000284 <solve_sudoku+0x244>
60000214:	00db86b3          	add	a3,s7,a3
60000218:	00f68633          	add	a2,a3,a5
6000021c:	00062603          	lw	a2,0(a2)
60000220:	06c40263          	beq	s0,a2,60000284 <solve_sudoku+0x244>
60000224:	00e68633          	add	a2,a3,a4
60000228:	00062603          	lw	a2,0(a2)
6000022c:	04c40c63          	beq	s0,a2,60000284 <solve_sudoku+0x244>
60000230:	011686b3          	add	a3,a3,a7
60000234:	0006a683          	lw	a3,0(a3)
60000238:	04d40663          	beq	s0,a3,60000284 <solve_sudoku+0x244>
6000023c:	00bb86b3          	add	a3,s7,a1
60000240:	00f687b3          	add	a5,a3,a5
60000244:	0007a783          	lw	a5,0(a5)
60000248:	02f40e63          	beq	s0,a5,60000284 <solve_sudoku+0x244>
6000024c:	00e68733          	add	a4,a3,a4
60000250:	00072783          	lw	a5,0(a4)
60000254:	02f40863          	beq	s0,a5,60000284 <solve_sudoku+0x244>
60000258:	011686b3          	add	a3,a3,a7
6000025c:	0006a783          	lw	a5,0(a3)
60000260:	02f40263          	beq	s0,a5,60000284 <solve_sudoku+0x244>
60000264:	00a80833          	add	a6,a6,a0
60000268:	00081e63          	bnez	a6,60000284 <solve_sudoku+0x244>
6000026c:	008ca023          	sw	s0,0(s9)
60000270:	000b8513          	mv	a0,s7
60000274:	00000097          	auipc	ra,0x0
60000278:	dcc080e7          	jalr	-564(ra) # 60000040 <solve_sudoku>
6000027c:	1e051063          	bnez	a0,6000045c <solve_sudoku+0x41c>
60000280:	000ca023          	sw	zero,0(s9)
60000284:	00140413          	add	s0,s0,1
60000288:	00a00793          	li	a5,10
6000028c:	e8f41ce3          	bne	s0,a5,60000124 <solve_sudoku+0xe4>
60000290:	02812403          	lw	s0,40(sp)
60000294:	02c12083          	lw	ra,44(sp)
60000298:	02412483          	lw	s1,36(sp)
6000029c:	02012903          	lw	s2,32(sp)
600002a0:	01c12983          	lw	s3,28(sp)
600002a4:	01812a03          	lw	s4,24(sp)
600002a8:	00812c03          	lw	s8,8(sp)
600002ac:	00412c83          	lw	s9,4(sp)
600002b0:	00012d03          	lw	s10,0(sp)
600002b4:	01412a83          	lw	s5,20(sp)
600002b8:	01012b03          	lw	s6,16(sp)
600002bc:	00c12b83          	lw	s7,12(sp)
600002c0:	00000513          	li	a0,0
600002c4:	03010113          	add	sp,sp,48
600002c8:	00008067          	ret
600002cc:	00100813          	li	a6,1
600002d0:	ef5c58e3          	bge	s8,s5,600001c0 <solve_sudoku+0x180>
600002d4:	00098613          	mv	a2,s3
600002d8:	12000593          	li	a1,288
600002dc:	0fc00693          	li	a3,252
600002e0:	ef6c5ae3          	bge	s8,s6,600001d4 <solve_sudoku+0x194>
600002e4:	00800893          	li	a7,8
600002e8:	00700713          	li	a4,7
600002ec:	00600793          	li	a5,6
600002f0:	ef5ff06f          	j	600001e4 <solve_sudoku+0x1a4>
600002f4:	00100513          	li	a0,1
600002f8:	e79ff06f          	j	60000170 <solve_sudoku+0x130>
600002fc:	00500893          	li	a7,5
60000300:	00400713          	li	a4,4
60000304:	00300793          	li	a5,3
60000308:	eddff06f          	j	600001e4 <solve_sudoku+0x1a4>
6000030c:	000a0613          	mv	a2,s4
60000310:	0b400593          	li	a1,180
60000314:	09000693          	li	a3,144
60000318:	eb9ff06f          	j	600001d0 <solve_sudoku+0x190>
6000031c:	02812423          	sw	s0,40(sp)
60000320:	02912223          	sw	s1,36(sp)
60000324:	03212023          	sw	s2,32(sp)
60000328:	01312e23          	sw	s3,28(sp)
6000032c:	01412c23          	sw	s4,24(sp)
60000330:	01812423          	sw	s8,8(sp)
60000334:	01912223          	sw	s9,4(sp)
60000338:	01a12023          	sw	s10,0(sp)
6000033c:	00100b13          	li	s6,1
60000340:	db5ff06f          	j	600000f4 <solve_sudoku+0xb4>
60000344:	02812423          	sw	s0,40(sp)
60000348:	02912223          	sw	s1,36(sp)
6000034c:	03212023          	sw	s2,32(sp)
60000350:	01312e23          	sw	s3,28(sp)
60000354:	01412c23          	sw	s4,24(sp)
60000358:	01812423          	sw	s8,8(sp)
6000035c:	01912223          	sw	s9,4(sp)
60000360:	01a12023          	sw	s10,0(sp)
60000364:	00200b13          	li	s6,2
60000368:	d8dff06f          	j	600000f4 <solve_sudoku+0xb4>
6000036c:	02812423          	sw	s0,40(sp)
60000370:	02912223          	sw	s1,36(sp)
60000374:	03212023          	sw	s2,32(sp)
60000378:	01312e23          	sw	s3,28(sp)
6000037c:	01412c23          	sw	s4,24(sp)
60000380:	01812423          	sw	s8,8(sp)
60000384:	01912223          	sw	s9,4(sp)
60000388:	01a12023          	sw	s10,0(sp)
6000038c:	00300b13          	li	s6,3
60000390:	d65ff06f          	j	600000f4 <solve_sudoku+0xb4>
60000394:	02812423          	sw	s0,40(sp)
60000398:	02912223          	sw	s1,36(sp)
6000039c:	03212023          	sw	s2,32(sp)
600003a0:	01312e23          	sw	s3,28(sp)
600003a4:	01412c23          	sw	s4,24(sp)
600003a8:	01812423          	sw	s8,8(sp)
600003ac:	01912223          	sw	s9,4(sp)
600003b0:	01a12023          	sw	s10,0(sp)
600003b4:	00400b13          	li	s6,4
600003b8:	d3dff06f          	j	600000f4 <solve_sudoku+0xb4>
600003bc:	02812423          	sw	s0,40(sp)
600003c0:	02912223          	sw	s1,36(sp)
600003c4:	03212023          	sw	s2,32(sp)
600003c8:	01312e23          	sw	s3,28(sp)
600003cc:	01412c23          	sw	s4,24(sp)
600003d0:	01812423          	sw	s8,8(sp)
600003d4:	01912223          	sw	s9,4(sp)
600003d8:	01a12023          	sw	s10,0(sp)
600003dc:	00500b13          	li	s6,5
600003e0:	d15ff06f          	j	600000f4 <solve_sudoku+0xb4>
600003e4:	02812423          	sw	s0,40(sp)
600003e8:	02912223          	sw	s1,36(sp)
600003ec:	03212023          	sw	s2,32(sp)
600003f0:	01312e23          	sw	s3,28(sp)
600003f4:	01412c23          	sw	s4,24(sp)
600003f8:	01812423          	sw	s8,8(sp)
600003fc:	01912223          	sw	s9,4(sp)
60000400:	01a12023          	sw	s10,0(sp)
60000404:	00600b13          	li	s6,6
60000408:	cedff06f          	j	600000f4 <solve_sudoku+0xb4>
6000040c:	02812423          	sw	s0,40(sp)
60000410:	02912223          	sw	s1,36(sp)
60000414:	03212023          	sw	s2,32(sp)
60000418:	01312e23          	sw	s3,28(sp)
6000041c:	01412c23          	sw	s4,24(sp)
60000420:	01812423          	sw	s8,8(sp)
60000424:	01912223          	sw	s9,4(sp)
60000428:	01a12023          	sw	s10,0(sp)
6000042c:	00700b13          	li	s6,7
60000430:	cc5ff06f          	j	600000f4 <solve_sudoku+0xb4>
60000434:	02812423          	sw	s0,40(sp)
60000438:	02912223          	sw	s1,36(sp)
6000043c:	03212023          	sw	s2,32(sp)
60000440:	01312e23          	sw	s3,28(sp)
60000444:	01412c23          	sw	s4,24(sp)
60000448:	01812423          	sw	s8,8(sp)
6000044c:	01912223          	sw	s9,4(sp)
60000450:	01a12023          	sw	s10,0(sp)
60000454:	00800b13          	li	s6,8
60000458:	c9dff06f          	j	600000f4 <solve_sudoku+0xb4>
6000045c:	02812403          	lw	s0,40(sp)
60000460:	02412483          	lw	s1,36(sp)
60000464:	02012903          	lw	s2,32(sp)
60000468:	01c12983          	lw	s3,28(sp)
6000046c:	01812a03          	lw	s4,24(sp)
60000470:	00812c03          	lw	s8,8(sp)
60000474:	00412c83          	lw	s9,4(sp)
60000478:	00012d03          	lw	s10,0(sp)
6000047c:	c3dff06f          	j	600000b8 <solve_sudoku+0x78>

60000480 <_fini>:
60000480:	00000063          	beqz	zero,60000480 <_fini>
60000484:	00000013          	nop
60000488:	00000013          	nop
6000048c:	00000013          	nop
60000490:	00000013          	nop
60000494:	00000013          	nop
60000498:	00000013          	nop
6000049c:	00000013          	nop
600004a0:	00000013          	nop
600004a4:	00000013          	nop
600004a8:	00000013          	nop
600004ac:	00000013          	nop
600004b0:	00000013          	nop
600004b4:	00000013          	nop
600004b8:	00000013          	nop
600004bc:	00000013          	nop
600004c0:	00000013          	nop
600004c4:	00000013          	nop
600004c8:	00000013          	nop
600004cc:	00000013          	nop
600004d0:	00000013          	nop
600004d4:	00000013          	nop
600004d8:	00000013          	nop
600004dc:	00000013          	nop
600004e0:	00000013          	nop
600004e4:	00000013          	nop
600004e8:	00000013          	nop
600004ec:	00000013          	nop
600004f0:	00000013          	nop
600004f4:	00000013          	nop
600004f8:	00000013          	nop
600004fc:	00000013          	nop
60000500:	00000013          	nop
60000504:	00000013          	nop
60000508:	00000013          	nop
6000050c:	00000013          	nop
60000510:	00000013          	nop
60000514:	00000013          	nop
60000518:	00000013          	nop
6000051c:	00000013          	nop
60000520:	00000013          	nop
60000524:	00000013          	nop
60000528:	00000013          	nop
6000052c:	00000013          	nop
60000530:	00000013          	nop
60000534:	00000013          	nop
60000538:	00000013          	nop
6000053c:	00000013          	nop
60000540:	00000013          	nop
60000544:	00000013          	nop
60000548:	00000013          	nop
6000054c:	00000013          	nop
60000550:	00000013          	nop
60000554:	00000013          	nop
60000558:	00000013          	nop
6000055c:	00000013          	nop
60000560:	00000013          	nop
60000564:	00000013          	nop
60000568:	00000013          	nop
6000056c:	00000013          	nop
60000570:	00000013          	nop
60000574:	00000013          	nop
60000578:	00000013          	nop
6000057c:	00000013          	nop
60000580:	00000013          	nop
60000584:	00000013          	nop
60000588:	00000013          	nop
6000058c:	00000013          	nop
60000590:	00000013          	nop
60000594:	00000013          	nop
60000598:	00000013          	nop
6000059c:	00000013          	nop
600005a0:	00000013          	nop
600005a4:	00000013          	nop
600005a8:	00000013          	nop
600005ac:	00000013          	nop
600005b0:	00000013          	nop
600005b4:	00000013          	nop
600005b8:	00000013          	nop
600005bc:	00000013          	nop
600005c0:	00000013          	nop
600005c4:	00000013          	nop
600005c8:	00000013          	nop
600005cc:	00000013          	nop
600005d0:	00000013          	nop
600005d4:	00000013          	nop
600005d8:	00000013          	nop
600005dc:	00000013          	nop
600005e0:	00000013          	nop
600005e4:	00000013          	nop
600005e8:	00000013          	nop
600005ec:	00000013          	nop
600005f0:	00000013          	nop
600005f4:	00000013          	nop
600005f8:	00000013          	nop
600005fc:	00000013          	nop
60000600:	00000013          	nop
60000604:	00000013          	nop
60000608:	00000013          	nop
6000060c:	00000013          	nop
60000610:	00000013          	nop
60000614:	00000013          	nop
60000618:	00000013          	nop
6000061c:	00000013          	nop
60000620:	00000013          	nop
60000624:	00000013          	nop
60000628:	00000013          	nop
6000062c:	00000013          	nop
60000630:	00000013          	nop
60000634:	00000013          	nop
60000638:	00000013          	nop
6000063c:	00000013          	nop
60000640:	00000013          	nop
60000644:	00000013          	nop
60000648:	00000013          	nop
6000064c:	00000013          	nop
60000650:	00000013          	nop
60000654:	00000013          	nop
60000658:	00000013          	nop
6000065c:	00000013          	nop
60000660:	00000013          	nop
60000664:	00000013          	nop
60000668:	00000013          	nop
6000066c:	00000013          	nop
60000670:	00000013          	nop
60000674:	00000013          	nop
60000678:	00000013          	nop
6000067c:	00000013          	nop
60000680:	00000013          	nop
60000684:	00000013          	nop
60000688:	00000013          	nop
6000068c:	00000013          	nop
60000690:	00000013          	nop
60000694:	00000013          	nop
60000698:	00000013          	nop
6000069c:	00000013          	nop
600006a0:	00000013          	nop
600006a4:	00000013          	nop
600006a8:	00000013          	nop
600006ac:	00000013          	nop
600006b0:	00000013          	nop
600006b4:	00000013          	nop
600006b8:	00000013          	nop
600006bc:	00000013          	nop
600006c0:	00000013          	nop
600006c4:	00000013          	nop
600006c8:	00000013          	nop
600006cc:	00000013          	nop
600006d0:	00000013          	nop
600006d4:	00000013          	nop
600006d8:	00000013          	nop
600006dc:	00000013          	nop
600006e0:	00000013          	nop
600006e4:	00000013          	nop
600006e8:	00000013          	nop
600006ec:	00000013          	nop
600006f0:	00000013          	nop
600006f4:	00000013          	nop
600006f8:	00000013          	nop
600006fc:	00000013          	nop
60000700:	00000013          	nop
60000704:	00000013          	nop
60000708:	00000013          	nop
6000070c:	00000013          	nop
60000710:	00000013          	nop
60000714:	00000013          	nop
60000718:	00000013          	nop
6000071c:	00000013          	nop
60000720:	00000013          	nop
60000724:	00000013          	nop
60000728:	00000013          	nop
6000072c:	00000013          	nop
60000730:	00000013          	nop
60000734:	00000013          	nop
60000738:	00000013          	nop
6000073c:	00000013          	nop
60000740:	00000013          	nop
60000744:	00000013          	nop
60000748:	00000013          	nop
6000074c:	00000013          	nop
60000750:	00000013          	nop
60000754:	00000013          	nop
60000758:	00000013          	nop
6000075c:	00000013          	nop
60000760:	00000013          	nop
60000764:	00000013          	nop
60000768:	00000013          	nop
6000076c:	00000013          	nop
60000770:	00000013          	nop
60000774:	00000013          	nop
60000778:	00000013          	nop
6000077c:	00000013          	nop
60000780:	00000013          	nop
60000784:	00000013          	nop
60000788:	00000013          	nop
6000078c:	00000013          	nop
60000790:	00000013          	nop
60000794:	00000013          	nop
60000798:	00000013          	nop
6000079c:	00000013          	nop
600007a0:	00000013          	nop
600007a4:	00000013          	nop
600007a8:	00000013          	nop
600007ac:	00000013          	nop
600007b0:	00000013          	nop
600007b4:	00000013          	nop
600007b8:	00000013          	nop
600007bc:	00000013          	nop
600007c0:	00000013          	nop
600007c4:	00000013          	nop
600007c8:	00000013          	nop
600007cc:	00000013          	nop
600007d0:	00000013          	nop
600007d4:	00000013          	nop
600007d8:	00000013          	nop
600007dc:	00000013          	nop
600007e0:	00000013          	nop
600007e4:	00000013          	nop
600007e8:	00000013          	nop
600007ec:	00000013          	nop
600007f0:	00000013          	nop
600007f4:	00000013          	nop
600007f8:	00000013          	nop
600007fc:	00000013          	nop
60000800:	00000013          	nop
60000804:	00000013          	nop
60000808:	00000013          	nop
6000080c:	00000013          	nop
60000810:	00000013          	nop
60000814:	00000013          	nop
60000818:	00000013          	nop
6000081c:	00000013          	nop
60000820:	00000013          	nop
60000824:	00000013          	nop
60000828:	00000013          	nop
6000082c:	00000013          	nop
60000830:	00000013          	nop
60000834:	00000013          	nop
60000838:	00000013          	nop
6000083c:	00000013          	nop
60000840:	00000013          	nop
60000844:	00000013          	nop
60000848:	00000013          	nop
6000084c:	00000013          	nop
60000850:	00000013          	nop
60000854:	00000013          	nop
60000858:	00000013          	nop
6000085c:	00000013          	nop
60000860:	00000013          	nop
60000864:	00000013          	nop
60000868:	00000013          	nop
6000086c:	00000013          	nop
60000870:	00000013          	nop
60000874:	00000013          	nop
60000878:	00000013          	nop
6000087c:	00000013          	nop
60000880:	00000013          	nop

60000884 <main>:
60000884:	ea010113          	add	sp,sp,-352
60000888:	14112e23          	sw	ra,348(sp)
6000088c:	00000797          	auipc	a5,0x0
60000890:	07478793          	add	a5,a5,116 # 60000900 <_text_vma_end>
60000894:	00c10713          	add	a4,sp,12
60000898:	00000697          	auipc	a3,0x0
6000089c:	1a868693          	add	a3,a3,424 # 60000a40 <_text_vma_end+0x140>
600008a0:	0007a803          	lw	a6,0(a5)
600008a4:	0047a503          	lw	a0,4(a5)
600008a8:	0087a583          	lw	a1,8(a5)
600008ac:	00c7a603          	lw	a2,12(a5)
600008b0:	01072023          	sw	a6,0(a4)
600008b4:	00a72223          	sw	a0,4(a4)
600008b8:	00b72423          	sw	a1,8(a4)
600008bc:	00c72623          	sw	a2,12(a4)
600008c0:	01078793          	add	a5,a5,16
600008c4:	01070713          	add	a4,a4,16
600008c8:	fcd79ce3          	bne	a5,a3,600008a0 <main+0x1c>
600008cc:	0007a783          	lw	a5,0(a5)
600008d0:	00f72023          	sw	a5,0(a4)
600008d4:	00102013          	slti	zero,zero,1
600008d8:	00302013          	slti	zero,zero,3
600008dc:	00c10513          	add	a0,sp,12
600008e0:	fffff097          	auipc	ra,0xfffff
600008e4:	760080e7          	jalr	1888(ra) # 60000040 <solve_sudoku>
600008e8:	00402013          	slti	zero,zero,4
600008ec:	00202013          	slti	zero,zero,2
600008f0:	15c12083          	lw	ra,348(sp)
600008f4:	00000513          	li	a0,0
600008f8:	16010113          	add	sp,sp,352
600008fc:	00008067          	ret
